target datalayout = "e-m:e-p270:32:32-p271:32:32-p272:64:64-i64:64-i128:128-f80:128-n8:16:32:64-S128"
target triple = "x86_64-pc-linux-gnu"

%"struct.absl::base_internal::ThreadIdentity" = type { %"struct.absl::base_internal::PerThreadSynch", %"struct.absl::base_internal::ThreadIdentity::WaiterState", ptr, %"struct.std::atomic.0", %"struct.std::atomic.0", %"struct.std::atomic.1", ptr }
%"struct.absl::base_internal::PerThreadSynch" = type { ptr, ptr, i8, i8, i8, i8, i8, i32, %"struct.std::atomic", ptr, i64, i64, ptr }
%"struct.std::atomic" = type { i32 }
%"struct.absl::base_internal::ThreadIdentity::WaiterState" = type { [256 x i8] }
%"struct.std::atomic.0" = type { %"struct.std::__atomic_base" }
%"struct.std::__atomic_base" = type { i32 }
%"struct.std::atomic.1" = type { %"struct.std::__atomic_base.2" }
%"struct.std::__atomic_base.2" = type { i8 }

; Function Attrs: inlinehint mustprogress uwtable
define linkonce_odr dso_local noundef ptr @_ZN4absl24synchronization_internal32GetOrCreateCurrentThreadIdentityEv() #2 comdat {
  %1 = alloca ptr, align 8
  %2 = alloca ptr, align 8
  %3 = alloca i32, align 4
  call void @llvm.lifetime.start.p0(i64 8, ptr %2) #9
  %4 = call noundef ptr @_ZN4absl13base_internal30CurrentThreadIdentityIfPresentEv()
  store ptr %4, ptr %2, align 8, !tbaa !9
  %5 = load ptr, ptr %2, align 8, !tbaa !9
  %6 = icmp eq ptr %5, null
  %7 = zext i1 %6 to i64
  %8 = call i64 @llvm.expect.i64(i64 %7, i64 0)
  %9 = icmp ne i64 %8, 0
  br i1 %9, label %10, label %12

10:                                               ; preds = %0
  %11 = call noundef ptr @_ZN4absl24synchronization_internal20CreateThreadIdentityEv()
  store ptr %11, ptr %1, align 8
  store i32 1, ptr %3, align 4
  br label %14

12:                                               ; preds = %0
  %13 = load ptr, ptr %2, align 8, !tbaa !9
  store ptr %13, ptr %1, align 8
  store i32 1, ptr %3, align 4
  br label %14

14:                                               ; preds = %12, %10
  call void @llvm.lifetime.end.p0(i64 8, ptr %2) #9
  %15 = load ptr, ptr %1, align 8
  ret ptr %15
}

; Function Attrs: mustprogress uwtable
define dso_local noundef ptr @_ZN4absl24synchronization_internal12PerThreadSem23GetThreadBlockedCounterEv() #0 align 2 {
  %1 = alloca ptr, align 8
  call void @llvm.lifetime.start.p0(i64 8, ptr %1) #9
  %2 = call noundef ptr @_ZN4absl24synchronization_internal32GetOrCreateCurrentThreadIdentityEv()
  store ptr %2, ptr %1, align 8, !tbaa !9
  %3 = load ptr, ptr %1, align 8, !tbaa !9
  %4 = getelementptr inbounds nuw %"struct.absl::base_internal::ThreadIdentity", ptr %3, i32 0, i32 2
  %5 = load ptr, ptr %4, align 8, !tbaa !11
  call void @llvm.lifetime.end.p0(i64 8, ptr %1) #9
  ret ptr %5
}