; Function Attrs: mustprogress uwtable
define dso_local noundef ptr @_ZN4absl24synchronization_internal12PerThreadSem23GetThreadBlockedCounterEv() local_unnamed_addr #0 align 2 {
  %1 = tail call noundef ptr @_ZN4absl13base_internal30CurrentThreadIdentityIfPresentEv()
  %2 = icmp eq ptr %1, null
  br i1 %2, label %3, label %_ZN4absl24synchronization_internal32GetOrCreateCurrentThreadIdentityEv.exit, !prof !4

3:                                                ; preds = %0
  %4 = tail call noundef ptr @_ZN4absl24synchronization_internal20CreateThreadIdentityEv()
  br label %_ZN4absl24synchronization_internal32GetOrCreateCurrentThreadIdentityEv.exit

_ZN4absl24synchronization_internal32GetOrCreateCurrentThreadIdentityEv.exit: ; preds = %0, %3
  %.0.i = phi ptr [ %4, %3 ], [ %1, %0 ]
  %5 = getelementptr inbounds nuw i8, ptr %.0.i, i64 320
  %6 = load ptr, ptr %5, align 8, !tbaa !5
  ret ptr %6
}